target datalayout = "e-m:e-p270:32:32-p271:32:32-p272:64:64-i64:64-i128:128-f80:128-n8:16:32:64-S128"
target triple = "x86_64-pc-linux-gnu"

; Function Attrs: nounwind uwtable
define internal void @highbd_smooth_predictor(ptr noundef %0, i64 noundef %1, i32 noundef %2, i32 noundef %3, ptr noundef %4, ptr noundef %5, i32 noundef %6) #0 {
  %8 = alloca ptr, align 8
  %9 = alloca i64, align 8
  %10 = alloca i32, align 4
  %11 = alloca i32, align 4
  %12 = alloca ptr, align 8
  %13 = alloca ptr, align 8
  %14 = alloca i32, align 4
  %15 = alloca i16, align 2
  %16 = alloca i16, align 2
  %17 = alloca ptr, align 8
  %18 = alloca ptr, align 8
  %19 = alloca i32, align 4
  %20 = alloca i16, align 2
  %21 = alloca i32, align 4
  %22 = alloca i32, align 4
  %23 = alloca [4 x i16], align 2
  %24 = alloca [4 x i8], align 1
  %25 = alloca i32, align 4
  %26 = alloca i32, align 4
  store ptr %0, ptr %8, align 8
  store i64 %1, ptr %9, align 8
  store i32 %2, ptr %10, align 4
  store i32 %3, ptr %11, align 4
  store ptr %4, ptr %12, align 8
  store ptr %5, ptr %13, align 8
  store i32 %6, ptr %14, align 4
  %27 = load ptr, ptr %13, align 8
  %28 = load i32, ptr %11, align 4
  %29 = sub nsw i32 %28, 1
  %30 = sext i32 %29 to i64
  %31 = getelementptr inbounds i16, ptr %27, i64 %30
  %32 = load i16, ptr %31, align 2
  store i16 %32, ptr %15, align 2
  %33 = load ptr, ptr %12, align 8
  %34 = load i32, ptr %10, align 4
  %35 = sub nsw i32 %34, 1
  %36 = sext i32 %35 to i64
  %37 = getelementptr inbounds i16, ptr %33, i64 %36
  %38 = load i16, ptr %37, align 2
  store i16 %38, ptr %16, align 2
  %39 = load i32, ptr %10, align 4
  %40 = sext i32 %39 to i64
  %41 = getelementptr inbounds i8, ptr @sm_weight_arrays, i64 %40
  store ptr %41, ptr %17, align 8
  %42 = load i32, ptr %11, align 4
  %43 = sext i32 %42 to i64
  %44 = getelementptr inbounds i8, ptr @sm_weight_arrays, i64 %43
  store ptr %44, ptr %18, align 8
  store i32 9, ptr %19, align 4
  store i16 256, ptr %20, align 2
  store i32 0, ptr %21, align 4
  br label %45

45:                                               ; preds = %135, %7
  %46 = load i32, ptr %21, align 4
  %47 = load i32, ptr %11, align 4
  %48 = icmp slt i32 %46, %47
  br i1 %48, label %49, label %138

49:                                               ; preds = %45
  store i32 0, ptr %22, align 4
  br label %50

50:                                               ; preds = %128, %49
  %51 = load i32, ptr %22, align 4
  %52 = load i32, ptr %10, align 4
  %53 = icmp slt i32 %51, %52
  br i1 %53, label %54, label %131

54:                                               ; preds = %50
  %55 = load ptr, ptr %12, align 8
  %56 = load i32, ptr %22, align 4
  %57 = sext i32 %56 to i64
  %58 = getelementptr inbounds i16, ptr %55, i64 %57
  %59 = load i16, ptr %58, align 2
  store i16 %59, ptr %23, align 2
  %60 = getelementptr inbounds i16, ptr %23, i64 1
  %61 = load i16, ptr %15, align 2
  store i16 %61, ptr %60, align 2
  %62 = getelementptr inbounds i16, ptr %23, i64 2
  %63 = load ptr, ptr %13, align 8
  %64 = load i32, ptr %21, align 4
  %65 = sext i32 %64 to i64
  %66 = getelementptr inbounds i16, ptr %63, i64 %65
  %67 = load i16, ptr %66, align 2
  store i16 %67, ptr %62, align 2
  %68 = getelementptr inbounds i16, ptr %23, i64 3
  %69 = load i16, ptr %16, align 2
  store i16 %69, ptr %68, align 2
  %70 = load ptr, ptr %18, align 8
  %71 = load i32, ptr %21, align 4
  %72 = sext i32 %71 to i64
  %73 = getelementptr inbounds i8, ptr %70, i64 %72
  %74 = load i8, ptr %73, align 1
  store i8 %74, ptr %24, align 1
  %75 = getelementptr inbounds i8, ptr %24, i64 1
  %76 = load ptr, ptr %18, align 8
  %77 = load i32, ptr %21, align 4
  %78 = sext i32 %77 to i64
  %79 = getelementptr inbounds i8, ptr %76, i64 %78
  %80 = load i8, ptr %79, align 1
  %81 = zext i8 %80 to i32
  %82 = sub nsw i32 256, %81
  %83 = trunc i32 %82 to i8
  store i8 %83, ptr %75, align 1
  %84 = getelementptr inbounds i8, ptr %24, i64 2
  %85 = load ptr, ptr %17, align 8
  %86 = load i32, ptr %22, align 4
  %87 = sext i32 %86 to i64
  %88 = getelementptr inbounds i8, ptr %85, i64 %87
  %89 = load i8, ptr %88, align 1
  store i8 %89, ptr %84, align 1
  %90 = getelementptr inbounds i8, ptr %24, i64 3
  %91 = load ptr, ptr %17, align 8
  %92 = load i32, ptr %22, align 4
  %93 = sext i32 %92 to i64
  %94 = getelementptr inbounds i8, ptr %91, i64 %93
  %95 = load i8, ptr %94, align 1
  %96 = zext i8 %95 to i32
  %97 = sub nsw i32 256, %96
  %98 = trunc i32 %97 to i8
  store i8 %98, ptr %90, align 1
  store i32 0, ptr %25, align 4
  store i32 0, ptr %26, align 4
  br label %99

99:                                               ; preds = %116, %54
  %100 = load i32, ptr %26, align 4
  %101 = icmp slt i32 %100, 4
  br i1 %101, label %102, label %119

102:                                              ; preds = %99
  %103 = load i32, ptr %26, align 4
  %104 = sext i32 %103 to i64
  %105 = getelementptr inbounds [4 x i8], ptr %24, i64 0, i64 %104
  %106 = load i8, ptr %105, align 1
  %107 = zext i8 %106 to i32
  %108 = load i32, ptr %26, align 4
  %109 = sext i32 %108 to i64
  %110 = getelementptr inbounds [4 x i16], ptr %23, i64 0, i64 %109
  %111 = load i16, ptr %110, align 2
  %112 = zext i16 %111 to i32
  %113 = mul nsw i32 %107, %112
  %114 = load i32, ptr %25, align 4
  %115 = add i32 %114, %113
  store i32 %115, ptr %25, align 4
  br label %116

116:                                              ; preds = %102
  %117 = load i32, ptr %26, align 4
  %118 = add nsw i32 %117, 1
  store i32 %118, ptr %26, align 4
  br label %99, !llvm.loop !18

119:                                              ; preds = %99
  %120 = load i32, ptr %25, align 4
  %121 = add i32 %120, 256
  %122 = lshr i32 %121, 9
  %123 = trunc i32 %122 to i16
  %124 = load ptr, ptr %8, align 8
  %125 = load i32, ptr %22, align 4
  %126 = sext i32 %125 to i64
  %127 = getelementptr inbounds i16, ptr %124, i64 %126
  store i16 %123, ptr %127, align 2
  br label %128

128:                                              ; preds = %119
  %129 = load i32, ptr %22, align 4
  %130 = add nsw i32 %129, 1
  store i32 %130, ptr %22, align 4
  br label %50, !llvm.loop !19

131:                                              ; preds = %50
  %132 = load i64, ptr %9, align 8
  %133 = load ptr, ptr %8, align 8
  %134 = getelementptr inbounds i16, ptr %133, i64 %132
  store ptr %134, ptr %8, align 8
  br label %135

135:                                              ; preds = %131
  %136 = load i32, ptr %21, align 4
  %137 = add nsw i32 %136, 1
  store i32 %137, ptr %21, align 4
  br label %45, !llvm.loop !20

138:                                              ; preds = %45
  ret void
}

; Function Attrs: nounwind uwtable
define hidden void @aom_highbd_smooth_predictor_32x8_c(ptr noundef %0, i64 noundef %1, ptr noundef %2, ptr noundef %3, i32 noundef %4) #0 {
  %6 = alloca ptr, align 8
  %7 = alloca i64, align 8
  %8 = alloca ptr, align 8
  %9 = alloca ptr, align 8
  %10 = alloca i32, align 4
  store ptr %0, ptr %6, align 8
  store i64 %1, ptr %7, align 8
  store ptr %2, ptr %8, align 8
  store ptr %3, ptr %9, align 8
  store i32 %4, ptr %10, align 4
  %11 = load ptr, ptr %6, align 8
  %12 = load i64, ptr %7, align 8
  %13 = load ptr, ptr %8, align 8
  %14 = load ptr, ptr %9, align 8
  %15 = load i32, ptr %10, align 4
  call void @highbd_smooth_predictor(ptr noundef %11, i64 noundef %12, i32 noundef 32, i32 noundef 8, ptr noundef %13, ptr noundef %14, i32 noundef %15)
  ret void
}